; Function Attrs: mustprogress uwtable
define dso_local void @_ZN10VTimescaleC2ERKNSt7__cxx1112basic_stringIcSt11char_traitsIcESaIcEEERb(ptr noundef nonnull writeonly align 1 captures(none) dereferenceable(1) initializes((0, 1)) %0, ptr noundef nonnull align 8 dereferenceable(32) %1, ptr noundef nonnull writeonly align 1 captures(none) dereferenceable(1) initializes((0, 1)) %2) unnamed_addr #6 align 2 personality ptr @__gxx_personality_v0 {
  %4 = alloca %"class.std::__cxx11::basic_string", align 8
  store i8 18, ptr %0, align 1, !tbaa !14
  store i8 1, ptr %2, align 1, !tbaa !17
  call void @llvm.lifetime.start.p0(i64 32, ptr nonnull %4) #40
  call void @_ZN7VString16removeWhitespaceERKNSt7__cxx1112basic_stringIcSt11char_traitsIcESaIcEEE(ptr dead_on_unwind nonnull writable sret(%"class.std::__cxx11::basic_string") align 8 %4, ptr noundef nonnull align 8 dereferenceable(32) %1)
  br label %5

5:                                                ; preds = %3, %.critedge
  %indvars.iv = phi i64 [ 0, %3 ], [ %indvars.iv.next, %.critedge ]
  %6 = getelementptr inbounds nuw [19 x ptr], ptr @_ZZNK10VTimescale5asciiEvE5names, i64 0, i64 %indvars.iv
  %7 = load ptr, ptr %6, align 8, !tbaa !4
  %8 = call noundef i32 @_ZNKSt7__cxx1112basic_stringIcSt11char_traitsIcESaIcEE7compareEPKc(ptr noundef nonnull align 8 dereferenceable(32) %4, ptr noundef %7) #40
  %9 = icmp eq i32 %8, 0
  br i1 %9, label %10, label %.critedge

10:                                               ; preds = %5
  %11 = trunc i64 %indvars.iv to i8
  store i8 0, ptr %2, align 1, !tbaa !17
  store i8 %11, ptr %0, align 1, !tbaa !14
  br label %.loopexit

.critedge:                                        ; preds = %5
  %indvars.iv.next = add nuw nsw i64 %indvars.iv, 1
  %exitcond.not = icmp eq i64 %indvars.iv.next, 19
  br i1 %exitcond.not, label %.loopexit, label %5, !llvm.loop !19

.loopexit:                                        ; preds = %.critedge, %10
  %12 = load ptr, ptr %4, align 8, !tbaa !20
  %13 = getelementptr inbounds nuw i8, ptr %4, i64 16
  %14 = icmp eq ptr %12, %13
  br i1 %14, label %_ZNKSt7__cxx1112basic_stringIcSt11char_traitsIcESaIcEE11_M_is_localEv.exit.thread.i.i, label %_ZNKSt7__cxx1112basic_stringIcSt11char_traitsIcESaIcEE11_M_is_localEv.exit.i.i

_ZNKSt7__cxx1112basic_stringIcSt11char_traitsIcESaIcEE11_M_is_localEv.exit.thread.i.i: ; preds = %.loopexit
  %15 = getelementptr inbounds nuw i8, ptr %4, i64 8
  %16 = load i64, ptr %15, align 8, !tbaa !24
  %17 = icmp ult i64 %16, 16
  call void @llvm.assume(i1 %17)
  br label %_ZNSt7__cxx1112basic_stringIcSt11char_traitsIcESaIcEED2Ev.exit

_ZNKSt7__cxx1112basic_stringIcSt11char_traitsIcESaIcEE11_M_is_localEv.exit.i.i: ; preds = %.loopexit
  %18 = load i64, ptr %13, align 8, !tbaa !25
  %19 = add i64 %18, 1
  call void @_ZdlPvm(ptr noundef %12, i64 noundef %19) #41
  br label %_ZNSt7__cxx1112basic_stringIcSt11char_traitsIcESaIcEED2Ev.exit

_ZNSt7__cxx1112basic_stringIcSt11char_traitsIcESaIcEED2Ev.exit: ; preds = %_ZNKSt7__cxx1112basic_stringIcSt11char_traitsIcESaIcEE11_M_is_localEv.exit.thread.i.i, %_ZNKSt7__cxx1112basic_stringIcSt11char_traitsIcESaIcEE11_M_is_localEv.exit.i.i
  call void @llvm.lifetime.end.p0(i64 32, ptr nonnull %4) #40
  ret void
}